
test_programs/sh4/CADET_00001.sh4:     file format elf32-sh-linux


Disassembly of section .plt:

00400350 <read@plt-0x1c>:
  400350:	05 d0       	mov.l	400368 <read@plt-0x4>,r0	! 411004
  400352:	02 60       	mov.l	@r0,r0
  400354:	06 2f       	mov.l	r0,@-r15  
  400356:	03 d0       	mov.l	400364 <read@plt-0x8>,r0	! 411008  
  400358:	02 60       	mov.l	@r0,r0
  40035a:	2b 40       	jmp	@r0
  40035c:	f6 60       	mov.l	@r15+,r0
  40035e:	09 00       	nop	
  400360:	09 00       	nop	
  400362:	09 00       	nop	
  400364:	08 10       	mov.l	r0,@(32,r0)
  400366:	41 00       	.word 0x0041
  400368:	04 10       	mov.l	r0,@(16,r0)
  40036a:	41 00       	.word 0x0041

0040036c <read@plt>:
  40036c:	04 d0       	mov.l	400380 <read@plt+0x14>,r0	! 41100c
  40036e:	02 60       	mov.l	@r0,r0
  400370:	02 d1       	mov.l	40037c <read@plt+0x10>,r1	! 400350
  400372:	2b 40       	jmp	@r0
  400374:	13 60       	mov	r1,r0
  400376:	03 d1       	mov.l	400384 <read@plt+0x18>,r1	! 0
  400378:	2b 40       	jmp	@r0
  40037a:	09 00       	nop	
  40037c:	50 03       	.word 0x0350
  40037e:	40 00       	.word 0x0040
  400380:	0c 10       	mov.l	r0,@(48,r0)
  400382:	41 00       	.word 0x0041
  400384:	00 00       	.word 0x0000
	...

00400388 <_exit@plt>:
  400388:	04 d0       	mov.l	40039c <_exit@plt+0x14>,r0	! 411010
  40038a:	02 60       	mov.l	@r0,r0
  40038c:	02 d1       	mov.l	400398 <_exit@plt+0x10>,r1	! 400350
  40038e:	2b 40       	jmp	@r0
  400390:	13 60       	mov	r1,r0
  400392:	03 d1       	mov.l	4003a0 <_exit@plt+0x18>,r1	! c
  400394:	2b 40       	jmp	@r0
  400396:	09 00       	nop	
  400398:	50 03       	.word 0x0350
  40039a:	40 00       	.word 0x0040
  40039c:	10 10       	mov.l	r1,@(0,r0)
  40039e:	41 00       	.word 0x0041
  4003a0:	0c 00       	mov.b	@(r0,r0),r0
	...

004003a4 <select@plt>:
  4003a4:	04 d0       	mov.l	4003b8 <select@plt+0x14>,r0	! 411014
  4003a6:	02 60       	mov.l	@r0,r0
  4003a8:	02 d1       	mov.l	4003b4 <select@plt+0x10>,r1	! 400350
  4003aa:	2b 40       	jmp	@r0
  4003ac:	13 60       	mov	r1,r0
  4003ae:	03 d1       	mov.l	4003bc <select@plt+0x18>,r1	! 18
  4003b0:	2b 40       	jmp	@r0
  4003b2:	09 00       	nop	
  4003b4:	50 03       	.word 0x0350
  4003b6:	40 00       	.word 0x0040
  4003b8:	14 10       	mov.l	r1,@(16,r0)
  4003ba:	41 00       	.word 0x0041
  4003bc:	18 00       	sett	
	...

004003c0 <syscall@plt>:
  4003c0:	04 d0       	mov.l	4003d4 <syscall@plt+0x14>,r0	! 411018
  4003c2:	02 60       	mov.l	@r0,r0
  4003c4:	02 d1       	mov.l	4003d0 <syscall@plt+0x10>,r1	! 400350
  4003c6:	2b 40       	jmp	@r0
  4003c8:	13 60       	mov	r1,r0
  4003ca:	03 d1       	mov.l	4003d8 <syscall@plt+0x18>,r1	! 24
  4003cc:	2b 40       	jmp	@r0
  4003ce:	09 00       	nop	
  4003d0:	50 03       	.word 0x0350
  4003d2:	40 00       	.word 0x0040
  4003d4:	18 10       	mov.l	r1,@(32,r0)
  4003d6:	41 00       	.word 0x0041
  4003d8:	24 00       	mov.b	r2,@(r0,r0)
	...

004003dc <mmap@plt>:
  4003dc:	04 d0       	mov.l	4003f0 <mmap@plt+0x14>,r0	! 41101c
  4003de:	02 60       	mov.l	@r0,r0
  4003e0:	02 d1       	mov.l	4003ec <mmap@plt+0x10>,r1	! 400350
  4003e2:	2b 40       	jmp	@r0
  4003e4:	13 60       	mov	r1,r0
  4003e6:	03 d1       	mov.l	4003f4 <mmap@plt+0x18>,r1	! 30
  4003e8:	2b 40       	jmp	@r0
  4003ea:	09 00       	nop	
  4003ec:	50 03       	.word 0x0350
  4003ee:	40 00       	.word 0x0040
  4003f0:	1c 10       	mov.l	r1,@(48,r0)
  4003f2:	41 00       	.word 0x0041
  4003f4:	30 00       	.word 0x0030
	...

004003f8 <write@plt>:
  4003f8:	04 d0       	mov.l	40040c <write@plt+0x14>,r0	! 411020
  4003fa:	02 60       	mov.l	@r0,r0
  4003fc:	02 d1       	mov.l	400408 <write@plt+0x10>,r1	! 400350
  4003fe:	2b 40       	jmp	@r0
  400400:	13 60       	mov	r1,r0
  400402:	03 d1       	mov.l	400410 <write@plt+0x18>,r1	! 3c
  400404:	2b 40       	jmp	@r0
  400406:	09 00       	nop	
  400408:	50 03       	.word 0x0350
  40040a:	40 00       	.word 0x0040
  40040c:	20 10       	mov.l	r2,@(0,r0)
  40040e:	41 00       	.word 0x0041
  400410:	3c 00       	mov.b	@(r0,r3),r0
	...

00400414 <munmap@plt>:
  400414:	04 d0       	mov.l	400428 <munmap@plt+0x14>,r0	! 411024
  400416:	02 60       	mov.l	@r0,r0
  400418:	02 d1       	mov.l	400424 <munmap@plt+0x10>,r1	! 400350
  40041a:	2b 40       	jmp	@r0
  40041c:	13 60       	mov	r1,r0
  40041e:	03 d1       	mov.l	40042c <munmap@plt+0x18>,r1	! 48
  400420:	2b 40       	jmp	@r0
  400422:	09 00       	nop	
  400424:	50 03       	.word 0x0350
  400426:	40 00       	.word 0x0040
  400428:	24 10       	mov.l	r2,@(16,r0)
  40042a:	41 00       	.word 0x0041
  40042c:	48 00       	.word 0x0048
	...

Disassembly of section .text:

00400430 <main>:
  400430:	86 2f       	mov.l	r8,@-r15
  400432:	e6 2f       	mov.l	r14,@-r15
  400434:	22 4f       	sts.l	pr,@-r15
  400436:	fc 7f       	add	#-4,r15
  400438:	f3 6e       	mov	r15,r14
  40043a:	2b d1       	mov.l	4004e8 <main+0xb8>,r1	! 400c38
  40043c:	1f e6       	mov	#31,r6
  40043e:	13 65       	mov	r1,r5
  400440:	01 e4       	mov	#1,r4
  400442:	2a d1       	mov.l	4004ec <main+0xbc>,r1	! 4006a4 <transmit_all>
  400444:	0b 41       	jsr	@r1
  400446:	09 00       	nop	
  400448:	03 61       	mov	r0,r1
  40044a:	18 21       	tst	r1,r1
  40044c:	03 89       	bt	400456 <main+0x26>
  40044e:	00 e4       	mov	#0,r4
  400450:	27 d1       	mov.l	4004f0 <main+0xc0>,r1	! 4009a0 <_terminate>
  400452:	0b 41       	jsr	@r1
  400454:	09 00       	nop	
  400456:	27 d1       	mov.l	4004f4 <main+0xc4>,r1	! 400c58
  400458:	25 e6       	mov	#37,r6
  40045a:	13 65       	mov	r1,r5
  40045c:	01 e4       	mov	#1,r4
  40045e:	23 d1       	mov.l	4004ec <main+0xbc>,r1	! 4006a4 <transmit_all>
  400460:	0b 41       	jsr	@r1
  400462:	09 00       	nop	
  400464:	03 61       	mov	r0,r1
  400466:	18 21       	tst	r1,r1
  400468:	03 89       	bt	400472 <main+0x42>
  40046a:	00 e4       	mov	#0,r4
  40046c:	20 d1       	mov.l	4004f0 <main+0xc0>,r1	! 4009a0 <_terminate>
  40046e:	0b 41       	jsr	@r1
  400470:	09 00       	nop	
  400472:	e3 68       	mov	r14,r8
  400474:	c4 78       	add	#-60,r8
  400476:	20 d1       	mov.l	4004f8 <main+0xc8>,r1	! 400504 <check>
  400478:	0b 41       	jsr	@r1
  40047a:	09 00       	nop	
  40047c:	03 61       	mov	r0,r1
  40047e:	1f 18       	mov.l	r1,@(60,r8)
  400480:	e3 61       	mov	r14,r1
  400482:	c4 71       	add	#-60,r1
  400484:	1f 52       	mov.l	@(60,r1),r2
  400486:	ff e1       	mov	#-1,r1
  400488:	10 32       	cmp/eq	r1,r2
  40048a:	20 89       	bt	4004ce <main+0x9e>
  40048c:	e3 61       	mov	r14,r1
  40048e:	c4 71       	add	#-60,r1
  400490:	1f 51       	mov.l	@(60,r1),r1
  400492:	18 21       	tst	r1,r1
  400494:	0d 8b       	bf	4004b2 <main+0x82>
  400496:	19 d1       	mov.l	4004fc <main+0xcc>,r1	! 400c80
  400498:	21 e6       	mov	#33,r6
  40049a:	13 65       	mov	r1,r5
  40049c:	01 e4       	mov	#1,r4
  40049e:	13 d1       	mov.l	4004ec <main+0xbc>,r1	! 4006a4 <transmit_all>
  4004a0:	0b 41       	jsr	@r1
  4004a2:	09 00       	nop	
  4004a4:	03 61       	mov	r0,r1
  4004a6:	18 21       	tst	r1,r1
  4004a8:	d5 89       	bt	400456 <main+0x26>
  4004aa:	00 e4       	mov	#0,r4
  4004ac:	10 d1       	mov.l	4004f0 <main+0xc0>,r1	! 4009a0 <_terminate>
  4004ae:	0b 41       	jsr	@r1
  4004b0:	09 00       	nop	
  4004b2:	13 d1       	mov.l	400500 <main+0xd0>,r1	! 400ca4
  4004b4:	1d e6       	mov	#29,r6
  4004b6:	13 65       	mov	r1,r5
  4004b8:	01 e4       	mov	#1,r4
  4004ba:	0c d1       	mov.l	4004ec <main+0xbc>,r1	! 4006a4 <transmit_all>
  4004bc:	0b 41       	jsr	@r1
  4004be:	09 00       	nop	
  4004c0:	03 61       	mov	r0,r1
  4004c2:	18 21       	tst	r1,r1
  4004c4:	c7 89       	bt	400456 <main+0x26>
  4004c6:	00 e4       	mov	#0,r4
  4004c8:	09 d1       	mov.l	4004f0 <main+0xc0>,r1	! 4009a0 <_terminate>
  4004ca:	0b 41       	jsr	@r1
  4004cc:	09 00       	nop	
  4004ce:	09 00       	nop	
  4004d0:	00 e1       	mov	#0,r1
  4004d2:	5a 41       	lds	r1,fpul
  4004d4:	0d f1       	fsts	fpul,fr1
  4004d6:	1d f1       	flds	fr1,fpul
  4004d8:	5a 00       	sts	fpul,r0
  4004da:	04 7e       	add	#4,r14
  4004dc:	e3 6f       	mov	r14,r15
  4004de:	26 4f       	lds.l	@r15+,pr
  4004e0:	f6 6e       	mov.l	@r15+,r14
  4004e2:	f6 68       	mov.l	@r15+,r8
  4004e4:	0b 00       	rts	
  4004e6:	09 00       	nop	
  4004e8:	38 0c       	.word 0x0c38
  4004ea:	40 00       	.word 0x0040
  4004ec:	a4 06       	mov.b	r10,@(r0,r6)
  4004ee:	40 00       	.word 0x0040
  4004f0:	a0 09       	.word 0x09a0
  4004f2:	40 00       	.word 0x0040
  4004f4:	58 0c       	.word 0x0c58
  4004f6:	40 00       	.word 0x0040
  4004f8:	04 05       	mov.b	r0,@(r0,r5)
  4004fa:	40 00       	.word 0x0040
  4004fc:	80 0c       	.word 0x0c80
  4004fe:	40 00       	.word 0x0040
  400500:	a4 0c       	mov.b	r10,@(r0,r12)
  400502:	40 00       	.word 0x0040

00400504 <check>:
  400504:	e6 2f       	mov.l	r14,@-r15
  400506:	22 4f       	sts.l	pr,@-r15
  400508:	b0 7f       	add	#-80,r15
  40050a:	f3 6e       	mov	r15,r14
  40050c:	e3 61       	mov	r14,r1
  40050e:	10 71       	add	#16,r1
  400510:	ff e2       	mov	#-1,r2
  400512:	2f 11       	mov.l	r2,@(60,r1)  
  400514:	e3 61       	mov	r14,r1
  400516:	10 71       	add	#16,r1
  400518:	01 e2       	mov	#1,r2
  40051a:	2d 11       	mov.l	r2,@(52,r1)
  40051c:	e3 61       	mov	r14,r1
  40051e:	10 71       	add	#16,r1
  400520:	00 e2       	mov	#0,r2
  400522:	2e 11       	mov.l	r2,@(56,r1)
  400524:	0e a0       	bra	400544 <check+0x40>
  400526:	09 00       	nop	
  400528:	e3 62       	mov	r14,r2
  40052a:	e3 61       	mov	r14,r1
  40052c:	10 71       	add	#16,r1
  40052e:	1e 51       	mov.l	@(56,r1),r1
  400530:	2c 31       	add	r2,r1
  400532:	00 e2       	mov	#0,r2
  400534:	20 21       	mov.b	r2,@r1
  400536:	e3 61       	mov	r14,r1
  400538:	10 71       	add	#16,r1
  40053a:	e3 62       	mov	r14,r2
  40053c:	10 72       	add	#16,r2
  40053e:	2e 52       	mov.l	@(56,r2),r2
  400540:	01 72       	add	#1,r2
  400542:	2e 11       	mov.l	r2,@(56,r1)
  400544:	e3 61       	mov	r14,r1
  400546:	10 71       	add	#16,r1
  400548:	1e 52       	mov.l	@(56,r1),r2
  40054a:	3f e1       	mov	#63,r1
  40054c:	16 32       	cmp/hi	r1,r2
  40054e:	eb 8b       	bf	400528 <check+0x24>
  400550:	4e 92       	mov.w	4005f0 <check+0xec>,r2	! 80
  400552:	e3 61       	mov	r14,r1
  400554:	0a e7       	mov	#10,r7
  400556:	23 66       	mov	r2,r6
  400558:	13 65       	mov	r1,r5
  40055a:	00 e4       	mov	#0,r4
  40055c:	25 d1       	mov.l	4005f4 <check+0xf0>,r1	! 40078c <receive_delim>
  40055e:	0b 41       	jsr	@r1
  400560:	09 00       	nop	
  400562:	03 61       	mov	r0,r1
  400564:	18 21       	tst	r1,r1
  400566:	02 89       	bt	40056e <check+0x6a>
  400568:	ff e1       	mov	#-1,r1
  40056a:	8a a0       	bra	400682 <check+0x17e>
  40056c:	09 00       	nop	
  40056e:	e3 61       	mov	r14,r1
  400570:	10 71       	add	#16,r1
  400572:	00 e2       	mov	#0,r2
  400574:	2e 11       	mov.l	r2,@(56,r1)
  400576:	0e a0       	bra	400596 <check+0x92>
  400578:	09 00       	nop	
  40057a:	e3 61       	mov	r14,r1
  40057c:	10 71       	add	#16,r1
  40057e:	e3 62       	mov	r14,r2
  400580:	10 72       	add	#16,r2
  400582:	2f 52       	mov.l	@(60,r2),r2
  400584:	01 72       	add	#1,r2
  400586:	2f 11       	mov.l	r2,@(60,r1)
  400588:	e3 61       	mov	r14,r1
  40058a:	10 71       	add	#16,r1
  40058c:	e3 62       	mov	r14,r2
  40058e:	10 72       	add	#16,r2
  400590:	2e 52       	mov.l	@(56,r2),r2
  400592:	01 72       	add	#1,r2
  400594:	2e 11       	mov.l	r2,@(56,r1)
  400596:	e3 62       	mov	r14,r2
  400598:	e3 61       	mov	r14,r1
  40059a:	10 71       	add	#16,r1
  40059c:	1e 51       	mov.l	@(56,r1),r1
  40059e:	2c 31       	add	r2,r1
  4005a0:	10 61       	mov.b	@r1,r1
  4005a2:	18 21       	tst	r1,r1
  4005a4:	e9 8b       	bf	40057a <check+0x76>
  4005a6:	e3 61       	mov	r14,r1
  4005a8:	10 71       	add	#16,r1
  4005aa:	e3 62       	mov	r14,r2
  4005ac:	10 72       	add	#16,r2
  4005ae:	2f 52       	mov.l	@(60,r2),r2
  4005b0:	2c 11       	mov.l	r2,@(48,r1)
  4005b2:	e3 61       	mov	r14,r1
  4005b4:	10 71       	add	#16,r1
  4005b6:	1f 52       	mov.l	@(60,r1),r2
  4005b8:	00 e1       	mov	#0,r1
  4005ba:	27 31       	cmp/gt	r2,r1
  4005bc:	1a 31       	subc	r1,r1
  4005be:	1a 22       	xor	r1,r2
  4005c0:	18 32       	sub	r1,r2
  4005c2:	01 e0       	mov	#1,r0
  4005c4:	09 22       	and	r0,r2
  4005c6:	1a 22       	xor	r1,r2
  4005c8:	23 63       	mov	r2,r3
  4005ca:	18 33       	sub	r1,r3
  4005cc:	33 61       	mov	r3,r1
  4005ce:	13 62       	mov	r1,r2
  4005d0:	01 e1       	mov	#1,r1
  4005d2:	10 32       	cmp/eq	r1,r2
  4005d4:	06 8b       	bf	4005e4 <check+0xe0>
  4005d6:	e3 61       	mov	r14,r1
  4005d8:	10 71       	add	#16,r1
  4005da:	e3 62       	mov	r14,r2
  4005dc:	10 72       	add	#16,r2
  4005de:	2c 52       	mov.l	@(48,r2),r2
  4005e0:	ff 72       	add	#-1,r2
  4005e2:	2c 11       	mov.l	r2,@(48,r1)
  4005e4:	e3 61       	mov	r14,r1
  4005e6:	10 71       	add	#16,r1
  4005e8:	00 e2       	mov	#0,r2
  4005ea:	2e 11       	mov.l	r2,@(56,r1)
  4005ec:	25 a0       	bra	40063a <check+0x136>
  4005ee:	09 00       	nop	
  4005f0:	80 00       	.word 0x0080
  4005f2:	09 00       	nop	
  4005f4:	8c 07       	mov.b	@(r0,r8),r7
  4005f6:	40 00       	.word 0x0040
  4005f8:	e3 62       	mov	r14,r2
  4005fa:	e3 61       	mov	r14,r1
  4005fc:	10 71       	add	#16,r1
  4005fe:	1e 51       	mov.l	@(56,r1),r1
  400600:	2c 31       	add	r2,r1
  400602:	10 62       	mov.b	@r1,r2
  400604:	e3 61       	mov	r14,r1
  400606:	10 71       	add	#16,r1
  400608:	1f 51       	mov.l	@(60,r1),r1
  40060a:	13 63       	mov	r1,r3
  40060c:	ff 73       	add	#-1,r3
  40060e:	e3 61       	mov	r14,r1
  400610:	10 71       	add	#16,r1
  400612:	1e 51       	mov.l	@(56,r1),r1
  400614:	33 67       	mov	r3,r7
  400616:	18 37       	sub	r1,r7
  400618:	73 61       	mov	r7,r1
  40061a:	e3 63       	mov	r14,r3
  40061c:	13 60       	mov	r1,r0
  40061e:	3c 01       	mov.b	@(r0,r3),r1
  400620:	10 32       	cmp/eq	r1,r2
  400622:	03 89       	bt	40062c <check+0x128>
  400624:	e3 61       	mov	r14,r1
  400626:	10 71       	add	#16,r1
  400628:	00 e2       	mov	#0,r2
  40062a:	2d 11       	mov.l	r2,@(52,r1)
  40062c:	e3 61       	mov	r14,r1
  40062e:	10 71       	add	#16,r1
  400630:	e3 62       	mov	r14,r2
  400632:	10 72       	add	#16,r2
  400634:	2e 52       	mov.l	@(56,r2),r2
  400636:	01 72       	add	#1,r2
  400638:	2e 11       	mov.l	r2,@(56,r1)
  40063a:	e3 61       	mov	r14,r1
  40063c:	10 71       	add	#16,r1
  40063e:	1c 51       	mov.l	@(48,r1),r1
  400640:	13 62       	mov	r1,r2
  400642:	00 42       	shll	r2
  400644:	29 02       	movt	r2
  400646:	2c 31       	add	r2,r1
  400648:	21 41       	shar	r1
  40064a:	13 62       	mov	r1,r2
  40064c:	e3 61       	mov	r14,r1
  40064e:	10 71       	add	#16,r1
  400650:	1e 51       	mov.l	@(56,r1),r1
  400652:	27 31       	cmp/gt	r2,r1
  400654:	d0 8b       	bf	4005f8 <check+0xf4>
  400656:	e3 61       	mov	r14,r1
  400658:	10 62       	mov.b	@r1,r2
  40065a:	5e e1       	mov	#94,r1
  40065c:	10 32       	cmp/eq	r1,r2
  40065e:	0d 8b       	bf	40067c <check+0x178>
  400660:	0d d1       	mov.l	400698 <check+0x194>,r1	! 400cc4
  400662:	0f e6       	mov	#15,r6
  400664:	13 65       	mov	r1,r5
  400666:	01 e4       	mov	#1,r4
  400668:	0c d1       	mov.l	40069c <check+0x198>,r1	! 4006a4 <transmit_all>
  40066a:	0b 41       	jsr	@r1
  40066c:	09 00       	nop	
  40066e:	03 61       	mov	r0,r1
  400670:	18 21       	tst	r1,r1
  400672:	03 89       	bt	40067c <check+0x178>
  400674:	00 e4       	mov	#0,r4
  400676:	0a d1       	mov.l	4006a0 <check+0x19c>,r1	! 4009a0 <_terminate>
  400678:	0b 41       	jsr	@r1
  40067a:	09 00       	nop	
  40067c:	e3 61       	mov	r14,r1
  40067e:	10 71       	add	#16,r1
  400680:	1d 51       	mov.l	@(52,r1),r1
  400682:	5a 41       	lds	r1,fpul
  400684:	0d f1       	fsts	fpul,fr1
  400686:	1d f1       	flds	fr1,fpul
  400688:	5a 00       	sts	fpul,r0
  40068a:	50 7e       	add	#80,r14
  40068c:	e3 6f       	mov	r14,r15
  40068e:	26 4f       	lds.l	@r15+,pr
  400690:	f6 6e       	mov.l	@r15+,r14
  400692:	0b 00       	rts	
  400694:	09 00       	nop	
  400696:	09 00       	nop	
  400698:	c4 0c       	mov.b	r12,@(r0,r12)
  40069a:	40 00       	.word 0x0040
  40069c:	a4 06       	mov.b	r10,@(r0,r6)
  40069e:	40 00       	.word 0x0040
  4006a0:	a0 09       	.word 0x09a0
  4006a2:	40 00       	.word 0x0040

004006a4 <transmit_all>:
  4006a4:	86 2f       	mov.l	r8,@-r15
  4006a6:	e6 2f       	mov.l	r14,@-r15
  4006a8:	22 4f       	sts.l	pr,@-r15
  4006aa:	e8 7f       	add	#-24,r15
  4006ac:	f3 6e       	mov	r15,r14
  4006ae:	e3 61       	mov	r14,r1
  4006b0:	d8 71       	add	#-40,r1
  4006b2:	4c 11       	mov.l	r4,@(48,r1)
  4006b4:	e3 61       	mov	r14,r1
  4006b6:	d8 71       	add	#-40,r1
  4006b8:	5b 11       	mov.l	r5,@(44,r1)
  4006ba:	e3 61       	mov	r14,r1
  4006bc:	d8 71       	add	#-40,r1
  4006be:	6a 11       	mov.l	r6,@(40,r1)
  4006c0:	e3 61       	mov	r14,r1
  4006c2:	d8 71       	add	#-40,r1
  4006c4:	00 e2       	mov	#0,r2
  4006c6:	2f 11       	mov.l	r2,@(60,r1)
  4006c8:	e3 61       	mov	r14,r1
  4006ca:	d8 71       	add	#-40,r1
  4006cc:	00 e2       	mov	#0,r2
  4006ce:	2d 11       	mov.l	r2,@(52,r1)
  4006d0:	e3 61       	mov	r14,r1
  4006d2:	d8 71       	add	#-40,r1
  4006d4:	1b 51       	mov.l	@(44,r1),r1
  4006d6:	18 21       	tst	r1,r1
  4006d8:	02 8b       	bf	4006e0 <transmit_all+0x3c>
  4006da:	01 e1       	mov	#1,r1
  4006dc:	48 a0       	bra	400770 <transmit_all+0xcc>
  4006de:	09 00       	nop	
  4006e0:	e3 61       	mov	r14,r1
  4006e2:	d8 71       	add	#-40,r1
  4006e4:	1a 51       	mov.l	@(40,r1),r1
  4006e6:	18 21       	tst	r1,r1
  4006e8:	39 8b       	bf	40075e <transmit_all+0xba>
  4006ea:	02 e1       	mov	#2,r1
  4006ec:	40 a0       	bra	400770 <transmit_all+0xcc>
  4006ee:	09 00       	nop	
  4006f0:	e3 62       	mov	r14,r2
  4006f2:	d8 72       	add	#-40,r2
  4006f4:	e3 61       	mov	r14,r1
  4006f6:	d8 71       	add	#-40,r1
  4006f8:	2b 52       	mov.l	@(44,r2),r2
  4006fa:	1f 51       	mov.l	@(60,r1),r1
  4006fc:	23 63       	mov	r2,r3
  4006fe:	1c 33       	add	r1,r3
  400700:	e3 62       	mov	r14,r2
  400702:	d8 72       	add	#-40,r2
  400704:	e3 61       	mov	r14,r1
  400706:	d8 71       	add	#-40,r1
  400708:	2a 52       	mov.l	@(40,r2),r2
  40070a:	1f 51       	mov.l	@(60,r1),r1
  40070c:	18 32       	sub	r1,r2
  40070e:	e3 68       	mov	r14,r8
  400710:	d8 78       	add	#-40,r8
  400712:	e3 67       	mov	r14,r7
  400714:	0c 77       	add	#12,r7
  400716:	e3 61       	mov	r14,r1
  400718:	d8 71       	add	#-40,r1
  40071a:	23 66       	mov	r2,r6
  40071c:	33 65       	mov	r3,r5
  40071e:	1c 54       	mov.l	@(48,r1),r4
  400720:	19 d1       	mov.l	400788 <transmit_all+0xe4>,r1	! 400918 <transmit>
  400722:	0b 41       	jsr	@r1
  400724:	09 00       	nop	
  400726:	03 61       	mov	r0,r1
  400728:	1e 18       	mov.l	r1,@(56,r8)
  40072a:	e3 61       	mov	r14,r1
  40072c:	d8 71       	add	#-40,r1
  40072e:	1d 51       	mov.l	@(52,r1),r1
  400730:	18 21       	tst	r1,r1
  400732:	02 8b       	bf	40073a <transmit_all+0x96>
  400734:	03 e1       	mov	#3,r1
  400736:	1b a0       	bra	400770 <transmit_all+0xcc>
  400738:	09 00       	nop	
  40073a:	e3 61       	mov	r14,r1
  40073c:	d8 71       	add	#-40,r1
  40073e:	1e 51       	mov.l	@(56,r1),r1
  400740:	18 21       	tst	r1,r1
  400742:	02 89       	bt	40074a <transmit_all+0xa6>
  400744:	03 e1       	mov	#3,r1
  400746:	13 a0       	bra	400770 <transmit_all+0xcc>
  400748:	09 00       	nop	
  40074a:	e3 61       	mov	r14,r1
  40074c:	d8 71       	add	#-40,r1
  40074e:	1d 52       	mov.l	@(52,r1),r2
  400750:	e3 61       	mov	r14,r1
  400752:	d8 71       	add	#-40,r1
  400754:	e3 63       	mov	r14,r3
  400756:	d8 73       	add	#-40,r3
  400758:	3f 53       	mov.l	@(60,r3),r3
  40075a:	3c 32       	add	r3,r2
  40075c:	2f 11       	mov.l	r2,@(60,r1)
  40075e:	e3 62       	mov	r14,r2
  400760:	d8 72       	add	#-40,r2
  400762:	e3 61       	mov	r14,r1
  400764:	d8 71       	add	#-40,r1
  400766:	2f 52       	mov.l	@(60,r2),r2
  400768:	1a 51       	mov.l	@(40,r1),r1
  40076a:	12 32       	cmp/hs	r1,r2
  40076c:	c0 8b       	bf	4006f0 <transmit_all+0x4c>
  40076e:	00 e1       	mov	#0,r1
  400770:	5a 41       	lds	r1,fpul
  400772:	0d f1       	fsts	fpul,fr1
  400774:	1d f1       	flds	fr1,fpul
  400776:	5a 00       	sts	fpul,r0
  400778:	18 7e       	add	#24,r14
  40077a:	e3 6f       	mov	r14,r15
  40077c:	26 4f       	lds.l	@r15+,pr
  40077e:	f6 6e       	mov.l	@r15+,r14
  400780:	f6 68       	mov.l	@r15+,r8
  400782:	0b 00       	rts	
  400784:	09 00       	nop	
  400786:	09 00       	nop	
  400788:	18 09       	.word 0x0918
  40078a:	40 00       	.word 0x0040

0040078c <receive_delim>:
  40078c:	86 2f       	mov.l	r8,@-r15
  40078e:	e6 2f       	mov.l	r14,@-r15
  400790:	22 4f       	sts.l	pr,@-r15
  400792:	e4 7f       	add	#-28,r15
  400794:	f3 6e       	mov	r15,r14
  400796:	e3 61       	mov	r14,r1
  400798:	dc 71       	add	#-36,r1
  40079a:	4c 11       	mov.l	r4,@(48,r1)
  40079c:	e3 61       	mov	r14,r1
  40079e:	dc 71       	add	#-36,r1
  4007a0:	5b 11       	mov.l	r5,@(44,r1)
  4007a2:	e3 61       	mov	r14,r1
  4007a4:	dc 71       	add	#-36,r1
  4007a6:	6a 11       	mov.l	r6,@(40,r1)
  4007a8:	73 62       	mov	r7,r2
  4007aa:	e3 61       	mov	r14,r1
  4007ac:	fc 71       	add	#-4,r1
  4007ae:	23 60       	mov	r2,r0
  4007b0:	14 80       	mov.b	r0,@(4,r1)
  4007b2:	e3 61       	mov	r14,r1
  4007b4:	dc 71       	add	#-36,r1
  4007b6:	00 e2       	mov	#0,r2
  4007b8:	2f 11       	mov.l	r2,@(60,r1)
  4007ba:	e3 61       	mov	r14,r1
  4007bc:	dc 71       	add	#-36,r1
  4007be:	00 e2       	mov	#0,r2
  4007c0:	2d 11       	mov.l	r2,@(52,r1)
  4007c2:	e3 61       	mov	r14,r1
  4007c4:	dc 71       	add	#-36,r1
  4007c6:	1b 51       	mov.l	@(44,r1),r1
  4007c8:	18 21       	tst	r1,r1
  4007ca:	02 8b       	bf	4007d2 <receive_delim+0x46>
  4007cc:	01 e1       	mov	#1,r1
  4007ce:	52 a0       	bra	400876 <receive_delim+0xea>
  4007d0:	09 00       	nop	
  4007d2:	e3 61       	mov	r14,r1
  4007d4:	dc 71       	add	#-36,r1
  4007d6:	1a 51       	mov.l	@(40,r1),r1
  4007d8:	18 21       	tst	r1,r1
  4007da:	40 8b       	bf	40085e <receive_delim+0xd2>
  4007dc:	02 e1       	mov	#2,r1
  4007de:	4a a0       	bra	400876 <receive_delim+0xea>
  4007e0:	09 00       	nop	
  4007e2:	e3 62       	mov	r14,r2
  4007e4:	dc 72       	add	#-36,r2
  4007e6:	e3 61       	mov	r14,r1
  4007e8:	dc 71       	add	#-36,r1
  4007ea:	2b 52       	mov.l	@(44,r2),r2
  4007ec:	1f 51       	mov.l	@(60,r1),r1
  4007ee:	1c 32       	add	r1,r2
  4007f0:	e3 68       	mov	r14,r8
  4007f2:	dc 78       	add	#-36,r8
  4007f4:	e3 63       	mov	r14,r3
  4007f6:	10 73       	add	#16,r3
  4007f8:	e3 61       	mov	r14,r1
  4007fa:	dc 71       	add	#-36,r1
  4007fc:	33 67       	mov	r3,r7
  4007fe:	01 e6       	mov	#1,r6
  400800:	23 65       	mov	r2,r5
  400802:	1c 54       	mov.l	@(48,r1),r4
  400804:	21 d1       	mov.l	40088c <receive_delim+0x100>,r1	! 400890 <receive>
  400806:	0b 41       	jsr	@r1
  400808:	09 00       	nop	
  40080a:	03 61       	mov	r0,r1
  40080c:	1e 18       	mov.l	r1,@(56,r8)
  40080e:	e3 61       	mov	r14,r1
  400810:	dc 71       	add	#-36,r1
  400812:	1d 51       	mov.l	@(52,r1),r1
  400814:	18 21       	tst	r1,r1
  400816:	02 8b       	bf	40081e <receive_delim+0x92>
  400818:	03 e1       	mov	#3,r1
  40081a:	2c a0       	bra	400876 <receive_delim+0xea>
  40081c:	09 00       	nop	
  40081e:	e3 61       	mov	r14,r1
  400820:	dc 71       	add	#-36,r1
  400822:	1e 51       	mov.l	@(56,r1),r1
  400824:	18 21       	tst	r1,r1
  400826:	02 89       	bt	40082e <receive_delim+0xa2>
  400828:	03 e1       	mov	#3,r1
  40082a:	24 a0       	bra	400876 <receive_delim+0xea>
  40082c:	09 00       	nop	
  40082e:	e3 62       	mov	r14,r2
  400830:	dc 72       	add	#-36,r2
  400832:	e3 61       	mov	r14,r1
  400834:	dc 71       	add	#-36,r1
  400836:	2b 52       	mov.l	@(44,r2),r2
  400838:	1f 51       	mov.l	@(60,r1),r1
  40083a:	2c 31       	add	r2,r1
  40083c:	10 61       	mov.b	@r1,r1
  40083e:	e3 62       	mov	r14,r2
  400840:	fc 72       	add	#-4,r2
  400842:	24 84       	mov.b	@(4,r2),r0
  400844:	03 62       	mov	r0,r2
  400846:	10 32       	cmp/eq	r1,r2
  400848:	13 89       	bt	400872 <receive_delim+0xe6>
  40084a:	e3 61       	mov	r14,r1
  40084c:	dc 71       	add	#-36,r1
  40084e:	1d 52       	mov.l	@(52,r1),r2
  400850:	e3 61       	mov	r14,r1
  400852:	dc 71       	add	#-36,r1
  400854:	e3 63       	mov	r14,r3
  400856:	dc 73       	add	#-36,r3
  400858:	3f 53       	mov.l	@(60,r3),r3
  40085a:	3c 32       	add	r3,r2
  40085c:	2f 11       	mov.l	r2,@(60,r1)
  40085e:	e3 62       	mov	r14,r2
  400860:	dc 72       	add	#-36,r2
  400862:	e3 61       	mov	r14,r1
  400864:	dc 71       	add	#-36,r1
  400866:	2f 52       	mov.l	@(60,r2),r2
  400868:	1a 51       	mov.l	@(40,r1),r1
  40086a:	12 32       	cmp/hs	r1,r2
  40086c:	b9 8b       	bf	4007e2 <receive_delim+0x56>
  40086e:	01 a0       	bra	400874 <receive_delim+0xe8>
  400870:	09 00       	nop	
  400872:	09 00       	nop	
  400874:	00 e1       	mov	#0,r1
  400876:	5a 41       	lds	r1,fpul
  400878:	0d f1       	fsts	fpul,fr1
  40087a:	1d f1       	flds	fr1,fpul
  40087c:	5a 00       	sts	fpul,r0
  40087e:	1c 7e       	add	#28,r14
  400880:	e3 6f       	mov	r14,r15
  400882:	26 4f       	lds.l	@r15+,pr
  400884:	f6 6e       	mov.l	@r15+,r14
  400886:	f6 68       	mov.l	@r15+,r8
  400888:	0b 00       	rts	
  40088a:	09 00       	nop	
  40088c:	90 08       	.word 0x0890
  40088e:	40 00       	.word 0x0040

00400890 <receive>:
  400890:	86 2f       	mov.l	r8,@-r15
  400892:	e6 2f       	mov.l	r14,@-r15
  400894:	22 4f       	sts.l	pr,@-r15
  400896:	ec 7f       	add	#-20,r15
  400898:	f3 6e       	mov	r15,r14
  40089a:	e3 61       	mov	r14,r1
  40089c:	d4 71       	add	#-44,r1
  40089e:	4e 11       	mov.l	r4,@(56,r1)
  4008a0:	e3 61       	mov	r14,r1
  4008a2:	d4 71       	add	#-44,r1
  4008a4:	5d 11       	mov.l	r5,@(52,r1)
  4008a6:	e3 61       	mov	r14,r1
  4008a8:	d4 71       	add	#-44,r1
  4008aa:	6c 11       	mov.l	r6,@(48,r1)
  4008ac:	e3 61       	mov	r14,r1
  4008ae:	d4 71       	add	#-44,r1
  4008b0:	7b 11       	mov.l	r7,@(44,r1)
  4008b2:	e3 68       	mov	r14,r8
  4008b4:	d4 78       	add	#-44,r8
  4008b6:	e3 63       	mov	r14,r3
  4008b8:	d4 73       	add	#-44,r3
  4008ba:	e3 62       	mov	r14,r2
  4008bc:	d4 72       	add	#-44,r2
  4008be:	e3 61       	mov	r14,r1
  4008c0:	d4 71       	add	#-44,r1
  4008c2:	3c 56       	mov.l	@(48,r3),r6
  4008c4:	2d 55       	mov.l	@(52,r2),r5
  4008c6:	1e 54       	mov.l	@(56,r1),r4
  4008c8:	12 d1       	mov.l	400914 <receive+0x84>,r1	! 40036c <read@plt>
  4008ca:	0b 41       	jsr	@r1
  4008cc:	09 00       	nop	
  4008ce:	03 61       	mov	r0,r1
  4008d0:	1f 18       	mov.l	r1,@(60,r8)
  4008d2:	e3 61       	mov	r14,r1
  4008d4:	d4 71       	add	#-44,r1
  4008d6:	1f 51       	mov.l	@(60,r1),r1
  4008d8:	11 41       	cmp/pz	r1
  4008da:	02 89       	bt	4008e2 <receive+0x52>
  4008dc:	01 e1       	mov	#1,r1
  4008de:	0d a0       	bra	4008fc <receive+0x6c>
  4008e0:	09 00       	nop	
  4008e2:	e3 61       	mov	r14,r1
  4008e4:	d4 71       	add	#-44,r1
  4008e6:	1b 51       	mov.l	@(44,r1),r1
  4008e8:	18 21       	tst	r1,r1
  4008ea:	06 89       	bt	4008fa <receive+0x6a>
  4008ec:	e3 61       	mov	r14,r1
  4008ee:	d4 71       	add	#-44,r1
  4008f0:	1f 52       	mov.l	@(60,r1),r2
  4008f2:	e3 61       	mov	r14,r1
  4008f4:	d4 71       	add	#-44,r1
  4008f6:	1b 51       	mov.l	@(44,r1),r1
  4008f8:	22 21       	mov.l	r2,@r1
  4008fa:	00 e1       	mov	#0,r1
  4008fc:	5a 41       	lds	r1,fpul
  4008fe:	0d f1       	fsts	fpul,fr1
  400900:	1d f1       	flds	fr1,fpul
  400902:	5a 00       	sts	fpul,r0
  400904:	14 7e       	add	#20,r14
  400906:	e3 6f       	mov	r14,r15
  400908:	26 4f       	lds.l	@r15+,pr
  40090a:	f6 6e       	mov.l	@r15+,r14
  40090c:	f6 68       	mov.l	@r15+,r8
  40090e:	0b 00       	rts	
  400910:	09 00       	nop	
  400912:	09 00       	nop	
  400914:	6c 03       	mov.b	@(r0,r6),r3
  400916:	40 00       	.word 0x0040

00400918 <transmit>:
  400918:	86 2f       	mov.l	r8,@-r15
  40091a:	e6 2f       	mov.l	r14,@-r15
  40091c:	22 4f       	sts.l	pr,@-r15
  40091e:	ec 7f       	add	#-20,r15
  400920:	f3 6e       	mov	r15,r14
  400922:	e3 61       	mov	r14,r1
  400924:	d4 71       	add	#-44,r1
  400926:	4e 11       	mov.l	r4,@(56,r1)
  400928:	e3 61       	mov	r14,r1
  40092a:	d4 71       	add	#-44,r1
  40092c:	5d 11       	mov.l	r5,@(52,r1)
  40092e:	e3 61       	mov	r14,r1
  400930:	d4 71       	add	#-44,r1
  400932:	6c 11       	mov.l	r6,@(48,r1)
  400934:	e3 61       	mov	r14,r1
  400936:	d4 71       	add	#-44,r1
  400938:	7b 11       	mov.l	r7,@(44,r1)
  40093a:	e3 68       	mov	r14,r8
  40093c:	d4 78       	add	#-44,r8
  40093e:	e3 63       	mov	r14,r3
  400940:	d4 73       	add	#-44,r3
  400942:	e3 62       	mov	r14,r2
  400944:	d4 72       	add	#-44,r2
  400946:	e3 61       	mov	r14,r1
  400948:	d4 71       	add	#-44,r1
  40094a:	3c 56       	mov.l	@(48,r3),r6
  40094c:	2d 55       	mov.l	@(52,r2),r5
  40094e:	1e 54       	mov.l	@(56,r1),r4
  400950:	12 d1       	mov.l	40099c <transmit+0x84>,r1	! 4003f8 <write@plt>
  400952:	0b 41       	jsr	@r1
  400954:	09 00       	nop	
  400956:	03 61       	mov	r0,r1
  400958:	1f 18       	mov.l	r1,@(60,r8)
  40095a:	e3 61       	mov	r14,r1
  40095c:	d4 71       	add	#-44,r1
  40095e:	1f 51       	mov.l	@(60,r1),r1
  400960:	11 41       	cmp/pz	r1
  400962:	02 89       	bt	40096a <transmit+0x52>
  400964:	01 e1       	mov	#1,r1
  400966:	0d a0       	bra	400984 <transmit+0x6c>
  400968:	09 00       	nop	
  40096a:	e3 61       	mov	r14,r1
  40096c:	d4 71       	add	#-44,r1
  40096e:	1b 51       	mov.l	@(44,r1),r1
  400970:	18 21       	tst	r1,r1
  400972:	06 89       	bt	400982 <transmit+0x6a>
  400974:	e3 61       	mov	r14,r1
  400976:	d4 71       	add	#-44,r1
  400978:	1f 52       	mov.l	@(60,r1),r2
  40097a:	e3 61       	mov	r14,r1
  40097c:	d4 71       	add	#-44,r1
  40097e:	1b 51       	mov.l	@(44,r1),r1
  400980:	22 21       	mov.l	r2,@r1
  400982:	00 e1       	mov	#0,r1
  400984:	5a 41       	lds	r1,fpul
  400986:	0d f1       	fsts	fpul,fr1
  400988:	1d f1       	flds	fr1,fpul
  40098a:	5a 00       	sts	fpul,r0
  40098c:	14 7e       	add	#20,r14
  40098e:	e3 6f       	mov	r14,r15
  400990:	26 4f       	lds.l	@r15+,pr
  400992:	f6 6e       	mov.l	@r15+,r14
  400994:	f6 68       	mov.l	@r15+,r8
  400996:	0b 00       	rts	
  400998:	09 00       	nop	
  40099a:	09 00       	nop	
  40099c:	f8 03       	.word 0x03f8
  40099e:	40 00       	.word 0x0040

004009a0 <_terminate>:
  4009a0:	e6 2f       	mov.l	r14,@-r15
  4009a2:	22 4f       	sts.l	pr,@-r15
  4009a4:	fc 7f       	add	#-4,r15
  4009a6:	f3 6e       	mov	r15,r14
  4009a8:	e3 61       	mov	r14,r1
  4009aa:	c4 71       	add	#-60,r1
  4009ac:	4f 11       	mov.l	r4,@(60,r1)
  4009ae:	e3 61       	mov	r14,r1
  4009b0:	c4 71       	add	#-60,r1
  4009b2:	1f 51       	mov.l	@(60,r1),r1
  4009b4:	13 64       	mov	r1,r4
  4009b6:	01 d1       	mov.l	4009bc <_terminate+0x1c>,r1	! 400388 <_exit@plt>
  4009b8:	0b 41       	jsr	@r1
  4009ba:	09 00       	nop	
  4009bc:	88 03       	.word 0x0388
  4009be:	40 00       	.word 0x0040

004009c0 <allocate>:
  4009c0:	86 2f       	mov.l	r8,@-r15
  4009c2:	e6 2f       	mov.l	r14,@-r15
  4009c4:	22 4f       	sts.l	pr,@-r15
  4009c6:	e8 7f       	add	#-24,r15
  4009c8:	f3 6e       	mov	r15,r14
  4009ca:	e3 61       	mov	r14,r1
  4009cc:	d8 71       	add	#-40,r1
  4009ce:	4e 11       	mov.l	r4,@(56,r1)
  4009d0:	e3 61       	mov	r14,r1
  4009d2:	d8 71       	add	#-40,r1
  4009d4:	5d 11       	mov.l	r5,@(52,r1)
  4009d6:	e3 61       	mov	r14,r1
  4009d8:	d8 71       	add	#-40,r1
  4009da:	6c 11       	mov.l	r6,@(48,r1)
  4009dc:	e3 61       	mov	r14,r1
  4009de:	d8 71       	add	#-40,r1
  4009e0:	1d 51       	mov.l	@(52,r1),r1
  4009e2:	18 21       	tst	r1,r1
  4009e4:	02 89       	bt	4009ec <allocate+0x2c>
  4009e6:	07 e1       	mov	#7,r1
  4009e8:	01 a0       	bra	4009ee <allocate+0x2e>
  4009ea:	09 00       	nop	
  4009ec:	03 e1       	mov	#3,r1
  4009ee:	e3 68       	mov	r14,r8
  4009f0:	d8 78       	add	#-40,r8
  4009f2:	e3 62       	mov	r14,r2
  4009f4:	d8 72       	add	#-40,r2
  4009f6:	00 e3       	mov	#0,r3
  4009f8:	31 1f       	mov.l	r3,@(4,r15)
  4009fa:	ff e3       	mov	#-1,r3
  4009fc:	32 2f       	mov.l	r3,@r15
  4009fe:	22 e7       	mov	#34,r7
  400a00:	13 66       	mov	r1,r6
  400a02:	2e 55       	mov.l	@(56,r2),r5
  400a04:	00 e4       	mov	#0,r4
  400a06:	13 d1       	mov.l	400a54 <allocate+0x94>,r1	! 4003dc <mmap@plt>
  400a08:	0b 41       	jsr	@r1
  400a0a:	09 00       	nop	
  400a0c:	03 61       	mov	r0,r1
  400a0e:	1f 18       	mov.l	r1,@(60,r8)
  400a10:	e3 61       	mov	r14,r1
  400a12:	d8 71       	add	#-40,r1
  400a14:	1f 52       	mov.l	@(60,r1),r2
  400a16:	ff e1       	mov	#-1,r1
  400a18:	10 32       	cmp/eq	r1,r2
  400a1a:	02 8b       	bf	400a22 <allocate+0x62>
  400a1c:	01 e1       	mov	#1,r1
  400a1e:	0d a0       	bra	400a3c <allocate+0x7c>
  400a20:	09 00       	nop	
  400a22:	e3 61       	mov	r14,r1
  400a24:	d8 71       	add	#-40,r1
  400a26:	1c 51       	mov.l	@(48,r1),r1
  400a28:	18 21       	tst	r1,r1
  400a2a:	06 89       	bt	400a3a <allocate+0x7a>
  400a2c:	e3 61       	mov	r14,r1
  400a2e:	d8 71       	add	#-40,r1
  400a30:	1c 51       	mov.l	@(48,r1),r1
  400a32:	e3 62       	mov	r14,r2
  400a34:	d8 72       	add	#-40,r2
  400a36:	2f 52       	mov.l	@(60,r2),r2
  400a38:	22 21       	mov.l	r2,@r1
  400a3a:	00 e1       	mov	#0,r1
  400a3c:	5a 41       	lds	r1,fpul
  400a3e:	0d f1       	fsts	fpul,fr1
  400a40:	1d f1       	flds	fr1,fpul
  400a42:	5a 00       	sts	fpul,r0
  400a44:	18 7e       	add	#24,r14
  400a46:	e3 6f       	mov	r14,r15
  400a48:	26 4f       	lds.l	@r15+,pr
  400a4a:	f6 6e       	mov.l	@r15+,r14
  400a4c:	f6 68       	mov.l	@r15+,r8
  400a4e:	0b 00       	rts	
  400a50:	09 00       	nop	
  400a52:	09 00       	nop	
  400a54:	dc 03       	mov.b	@(r0,r13),r3
  400a56:	40 00       	.word 0x0040

00400a58 <deallocate>:
  400a58:	e6 2f       	mov.l	r14,@-r15
  400a5a:	22 4f       	sts.l	pr,@-r15
  400a5c:	f8 7f       	add	#-8,r15
  400a5e:	f3 6e       	mov	r15,r14
  400a60:	e3 61       	mov	r14,r1
  400a62:	c8 71       	add	#-56,r1
  400a64:	4f 11       	mov.l	r4,@(60,r1)
  400a66:	e3 61       	mov	r14,r1
  400a68:	c8 71       	add	#-56,r1
  400a6a:	5e 11       	mov.l	r5,@(56,r1)
  400a6c:	e3 62       	mov	r14,r2
  400a6e:	c8 72       	add	#-56,r2
  400a70:	e3 61       	mov	r14,r1
  400a72:	c8 71       	add	#-56,r1
  400a74:	2e 55       	mov.l	@(56,r2),r5
  400a76:	1f 54       	mov.l	@(60,r1),r4
  400a78:	08 d1       	mov.l	400a9c <deallocate+0x44>,r1	! 400414 <munmap@plt>
  400a7a:	0b 41       	jsr	@r1
  400a7c:	09 00       	nop	
  400a7e:	03 61       	mov	r0,r1
  400a80:	18 21       	tst	r1,r1
  400a82:	ff e1       	mov	#-1,r1
  400a84:	1a 61       	negc	r1,r1
  400a86:	1c 61       	extu.b	r1,r1
  400a88:	5a 41       	lds	r1,fpul
  400a8a:	0d f1       	fsts	fpul,fr1
  400a8c:	1d f1       	flds	fr1,fpul
  400a8e:	5a 00       	sts	fpul,r0
  400a90:	08 7e       	add	#8,r14
  400a92:	e3 6f       	mov	r14,r15
  400a94:	26 4f       	lds.l	@r15+,pr
  400a96:	f6 6e       	mov.l	@r15+,r14
  400a98:	0b 00       	rts	
  400a9a:	09 00       	nop	
  400a9c:	14 04       	mov.b	r1,@(r0,r4)
  400a9e:	40 00       	.word 0x0040

00400aa0 <fdwait>:
  400aa0:	86 2f       	mov.l	r8,@-r15
  400aa2:	e6 2f       	mov.l	r14,@-r15
  400aa4:	22 4f       	sts.l	pr,@-r15
  400aa6:	e8 7f       	add	#-24,r15
  400aa8:	f3 6e       	mov	r15,r14
  400aaa:	e3 61       	mov	r14,r1
  400aac:	d8 71       	add	#-40,r1
  400aae:	4e 11       	mov.l	r4,@(56,r1)
  400ab0:	e3 61       	mov	r14,r1
  400ab2:	d8 71       	add	#-40,r1
  400ab4:	5d 11       	mov.l	r5,@(52,r1)
  400ab6:	e3 61       	mov	r14,r1
  400ab8:	d8 71       	add	#-40,r1
  400aba:	6c 11       	mov.l	r6,@(48,r1)
  400abc:	e3 61       	mov	r14,r1
  400abe:	d8 71       	add	#-40,r1
  400ac0:	7b 11       	mov.l	r7,@(44,r1)
  400ac2:	e3 68       	mov	r14,r8
  400ac4:	d8 78       	add	#-40,r8
  400ac6:	e3 63       	mov	r14,r3
  400ac8:	d8 73       	add	#-40,r3
  400aca:	e3 62       	mov	r14,r2
  400acc:	d8 72       	add	#-40,r2
  400ace:	e3 61       	mov	r14,r1
  400ad0:	d8 71       	add	#-40,r1
  400ad2:	e3 67       	mov	r14,r7
  400ad4:	d8 77       	add	#-40,r7
  400ad6:	7b 57       	mov.l	@(44,r7),r7
  400ad8:	72 2f       	mov.l	r7,@r15
  400ada:	00 e7       	mov	#0,r7
  400adc:	3c 56       	mov.l	@(48,r3),r6
  400ade:	2d 55       	mov.l	@(52,r2),r5
  400ae0:	1e 54       	mov.l	@(56,r1),r4
  400ae2:	10 d1       	mov.l	400b24 <fdwait+0x84>,r1	! 4003a4 <select@plt>
  400ae4:	0b 41       	jsr	@r1
  400ae6:	09 00       	nop	
  400ae8:	03 61       	mov	r0,r1
  400aea:	1f 18       	mov.l	r1,@(60,r8)
  400aec:	e3 61       	mov	r14,r1
  400aee:	d8 71       	add	#-40,r1
  400af0:	1f 51       	mov.l	@(60,r1),r1
  400af2:	11 41       	cmp/pz	r1
  400af4:	02 89       	bt	400afc <fdwait+0x5c>
  400af6:	01 e1       	mov	#1,r1
  400af8:	09 a0       	bra	400b0e <fdwait+0x6e>
  400afa:	09 00       	nop	
  400afc:	e9 51       	mov.l	@(36,r14),r1
  400afe:	18 21       	tst	r1,r1
  400b00:	04 89       	bt	400b0c <fdwait+0x6c>
  400b02:	e9 51       	mov.l	@(36,r14),r1
  400b04:	e3 62       	mov	r14,r2
  400b06:	d8 72       	add	#-40,r2
  400b08:	2f 52       	mov.l	@(60,r2),r2
  400b0a:	22 21       	mov.l	r2,@r1
  400b0c:	00 e1       	mov	#0,r1
  400b0e:	5a 41       	lds	r1,fpul
  400b10:	0d f1       	fsts	fpul,fr1
  400b12:	1d f1       	flds	fr1,fpul
  400b14:	5a 00       	sts	fpul,r0
  400b16:	18 7e       	add	#24,r14
  400b18:	e3 6f       	mov	r14,r15
  400b1a:	26 4f       	lds.l	@r15+,pr
  400b1c:	f6 6e       	mov.l	@r15+,r14
  400b1e:	f6 68       	mov.l	@r15+,r8
  400b20:	0b 00       	rts	
  400b22:	09 00       	nop	
  400b24:	a4 03       	mov.b	r10,@(r0,r3)
  400b26:	40 00       	.word 0x0040

00400b28 <random>:
  400b28:	86 2f       	mov.l	r8,@-r15
  400b2a:	e6 2f       	mov.l	r14,@-r15
  400b2c:	22 4f       	sts.l	pr,@-r15
  400b2e:	f0 7f       	add	#-16,r15
  400b30:	f3 6e       	mov	r15,r14
  400b32:	e3 61       	mov	r14,r1
  400b34:	d0 71       	add	#-48,r1
  400b36:	4e 11       	mov.l	r4,@(56,r1)
  400b38:	e3 61       	mov	r14,r1
  400b3a:	d0 71       	add	#-48,r1
  400b3c:	5d 11       	mov.l	r5,@(52,r1)
  400b3e:	e3 61       	mov	r14,r1
  400b40:	d0 71       	add	#-48,r1
  400b42:	6c 11       	mov.l	r6,@(48,r1)
  400b44:	e3 68       	mov	r14,r8
  400b46:	d0 78       	add	#-48,r8
  400b48:	e3 62       	mov	r14,r2
  400b4a:	d0 72       	add	#-48,r2
  400b4c:	e3 61       	mov	r14,r1
  400b4e:	d0 71       	add	#-48,r1
  400b50:	28 93       	mov.w	400ba4 <random+0x7c>,r3	! 175
  400b52:	00 e7       	mov	#0,r7
  400b54:	2d 56       	mov.l	@(52,r2),r6
  400b56:	1e 55       	mov.l	@(56,r1),r5
  400b58:	33 64       	mov	r3,r4
  400b5a:	13 d1       	mov.l	400ba8 <random+0x80>,r1	! 4003c0 <syscall@plt>
  400b5c:	0b 41       	jsr	@r1
  400b5e:	09 00       	nop	
  400b60:	03 61       	mov	r0,r1
  400b62:	1f 18       	mov.l	r1,@(60,r8)
  400b64:	e3 61       	mov	r14,r1
  400b66:	d0 71       	add	#-48,r1
  400b68:	1f 51       	mov.l	@(60,r1),r1
  400b6a:	11 41       	cmp/pz	r1
  400b6c:	02 89       	bt	400b74 <random+0x4c>
  400b6e:	01 e1       	mov	#1,r1
  400b70:	0d a0       	bra	400b8e <random+0x66>
  400b72:	09 00       	nop	
  400b74:	e3 61       	mov	r14,r1
  400b76:	d0 71       	add	#-48,r1
  400b78:	1c 51       	mov.l	@(48,r1),r1
  400b7a:	18 21       	tst	r1,r1
  400b7c:	06 89       	bt	400b8c <random+0x64>
  400b7e:	e3 61       	mov	r14,r1
  400b80:	d0 71       	add	#-48,r1
  400b82:	1f 52       	mov.l	@(60,r1),r2
  400b84:	e3 61       	mov	r14,r1
  400b86:	d0 71       	add	#-48,r1
  400b88:	1c 51       	mov.l	@(48,r1),r1
  400b8a:	22 21       	mov.l	r2,@r1
  400b8c:	00 e1       	mov	#0,r1
  400b8e:	5a 41       	lds	r1,fpul
  400b90:	0d f1       	fsts	fpul,fr1
  400b92:	1d f1       	flds	fr1,fpul
  400b94:	5a 00       	sts	fpul,r0
  400b96:	10 7e       	add	#16,r14
  400b98:	e3 6f       	mov	r14,r15
  400b9a:	26 4f       	lds.l	@r15+,pr
  400b9c:	f6 6e       	mov.l	@r15+,r14
  400b9e:	f6 68       	mov.l	@r15+,r8
  400ba0:	0b 00       	rts	
  400ba2:	09 00       	nop	
  400ba4:	75 01       	mov.w	r7,@(r0,r1)
  400ba6:	09 00       	nop	
  400ba8:	c0 03       	.word 0x03c0
  400baa:	40 00       	.word 0x0040

00400bac <cgc_initialize_flag_page>:
  400bac:	86 2f       	mov.l	r8,@-r15
  400bae:	e6 2f       	mov.l	r14,@-r15
  400bb0:	22 4f       	sts.l	pr,@-r15
  400bb2:	f4 7f       	add	#-12,r15
  400bb4:	f3 6e       	mov	r15,r14
  400bb6:	e3 68       	mov	r14,r8
  400bb8:	cc 78       	add	#-52,r8
  400bba:	1e 93       	mov.w	400bfa <cgc_initialize_flag_page+0x4e>,r3	! 1000
  400bbc:	0f d2       	mov.l	400bfc <cgc_initialize_flag_page+0x50>,r2	! 4347c000
  400bbe:	00 e1       	mov	#0,r1
  400bc0:	11 1f       	mov.l	r1,@(4,r15)
  400bc2:	ff e1       	mov	#-1,r1
  400bc4:	12 2f       	mov.l	r1,@r15
  400bc6:	32 e7       	mov	#50,r7
  400bc8:	03 e6       	mov	#3,r6
  400bca:	33 65       	mov	r3,r5
  400bcc:	23 64       	mov	r2,r4
  400bce:	0c d1       	mov.l	400c00 <cgc_initialize_flag_page+0x54>,r1	! 4003dc <mmap@plt>
  400bd0:	0b 41       	jsr	@r1
  400bd2:	09 00       	nop	
  400bd4:	03 61       	mov	r0,r1
  400bd6:	1f 18       	mov.l	r1,@(60,r8)
  400bd8:	0f 92       	mov.w	400bfa <cgc_initialize_flag_page+0x4e>,r2	! 1000
  400bda:	e3 61       	mov	r14,r1
  400bdc:	cc 71       	add	#-52,r1
  400bde:	00 e6       	mov	#0,r6
  400be0:	23 65       	mov	r2,r5
  400be2:	1f 54       	mov.l	@(60,r1),r4
  400be4:	07 d1       	mov.l	400c04 <cgc_initialize_flag_page+0x58>,r1	! 400b28 <random>
  400be6:	0b 41       	jsr	@r1
  400be8:	09 00       	nop	
  400bea:	09 00       	nop	
  400bec:	0c 7e       	add	#12,r14
  400bee:	e3 6f       	mov	r14,r15
  400bf0:	26 4f       	lds.l	@r15+,pr
  400bf2:	f6 6e       	mov.l	@r15+,r14
  400bf4:	f6 68       	mov.l	@r15+,r8
  400bf6:	0b 00       	rts	
  400bf8:	09 00       	nop	
  400bfa:	00 10       	mov.l	r0,@(0,r0)
  400bfc:	00 c0       	mov.b	r0,@(0,gbr)
  400bfe:	47 43       	.word 0x4347
  400c00:	dc 03       	mov.b	@(r0,r13),r3
  400c02:	40 00       	.word 0x0040
  400c04:	28 0b       	.word 0x0b28
  400c06:	40 00       	.word 0x0040

00400c08 <_start>:
  400c08:	e6 2f       	mov.l	r14,@-r15
  400c0a:	22 4f       	sts.l	pr,@-r15
  400c0c:	f3 6e       	mov	r15,r14
  400c0e:	07 d1       	mov.l	400c2c <_start+0x24>,r1	! 400bac <cgc_initialize_flag_page>
  400c10:	0b 41       	jsr	@r1
  400c12:	09 00       	nop	
  400c14:	06 d1       	mov.l	400c30 <_start+0x28>,r1	! 400430 <main>
  400c16:	0b 41       	jsr	@r1
  400c18:	09 00       	nop	
  400c1a:	5a 40       	lds	r0,fpul
  400c1c:	0d f1       	fsts	fpul,fr1
  400c1e:	1d f1       	flds	fr1,fpul
  400c20:	5a 01       	sts	fpul,r1
  400c22:	13 64       	mov	r1,r4
  400c24:	03 d1       	mov.l	400c34 <_start+0x2c>,r1	! 4009a0 <_terminate>
  400c26:	0b 41       	jsr	@r1
  400c28:	09 00       	nop	
  400c2a:	09 00       	nop	
  400c2c:	ac 0b       	mov.b	@(r0,r10),r11
  400c2e:	40 00       	.word 0x0040
  400c30:	30 04       	.word 0x0430
  400c32:	40 00       	.word 0x0040
  400c34:	a0 09       	.word 0x09a0
  400c36:	40 00       	.word 0x0040
